target datalayout = "e-m:e-p270:32:32-p271:32:32-p272:64:64-i64:64-i128:128-f80:128-n8:16:32:64-S128"
target triple = "x86_64-pc-linux-gnu"

%struct.stbi_io_callbacks = type { ptr, ptr, ptr }
%struct.stbi__context = type { i32, i32, i32, i32, %struct.stbi_io_callbacks, ptr, i32, i32, [128 x i8], i32, ptr, ptr, ptr, ptr }
%struct.stbi__png = type { ptr, ptr, ptr, ptr, i32 }

; Function Attrs: nounwind uwtable
define void @stbi__rewind(ptr noundef %0) #0 {
  %2 = alloca ptr, align 8
  store ptr %0, ptr %2, align 8, !tbaa !3
  %3 = load ptr, ptr %2, align 8, !tbaa !3
  %4 = getelementptr inbounds nuw %struct.stbi__context, ptr %3, i32 0, i32 12
  %5 = load ptr, ptr %4, align 8, !tbaa !16
  %6 = load ptr, ptr %2, align 8, !tbaa !3
  %7 = getelementptr inbounds nuw %struct.stbi__context, ptr %6, i32 0, i32 10
  store ptr %5, ptr %7, align 8, !tbaa !17
  %8 = load ptr, ptr %2, align 8, !tbaa !3
  %9 = getelementptr inbounds nuw %struct.stbi__context, ptr %8, i32 0, i32 13
  %10 = load ptr, ptr %9, align 8, !tbaa !18
  %11 = load ptr, ptr %2, align 8, !tbaa !3
  %12 = getelementptr inbounds nuw %struct.stbi__context, ptr %11, i32 0, i32 11
  store ptr %10, ptr %12, align 8, !tbaa !19
  ret void
}

; Function Attrs: nounwind uwtable
define i32 @stbi__png_info_raw(ptr noundef %0, ptr noundef %1, ptr noundef %2, ptr noundef %3) #0 {
  %5 = alloca i32, align 4
  %6 = alloca ptr, align 8
  %7 = alloca ptr, align 8
  %8 = alloca ptr, align 8
  %9 = alloca ptr, align 8
  store ptr %0, ptr %6, align 8, !tbaa !3
  store ptr %1, ptr %7, align 8, !tbaa !28
  store ptr %2, ptr %8, align 8, !tbaa !28
  store ptr %3, ptr %9, align 8, !tbaa !28
  %10 = load ptr, ptr %6, align 8, !tbaa !3
  %11 = call i32 @stbi__parse_png_file(ptr noundef %10, i32 noundef 2, i32 noundef 0)
  %12 = icmp ne i32 %11, 0
  br i1 %12, label %17, label %13

13:                                               ; preds = %4
  %14 = load ptr, ptr %6, align 8, !tbaa !3
  %15 = getelementptr inbounds nuw %struct.stbi__png, ptr %14, i32 0, i32 0
  %16 = load ptr, ptr %15, align 8, !tbaa !36
  call void @stbi__rewind(ptr noundef %16)
  store i32 0, ptr %5, align 4
  br label %48

17:                                               ; preds = %4
  %18 = load ptr, ptr %7, align 8, !tbaa !28
  %19 = icmp ne ptr %18, null
  br i1 %19, label %20, label %27

20:                                               ; preds = %17
  %21 = load ptr, ptr %6, align 8, !tbaa !3
  %22 = getelementptr inbounds nuw %struct.stbi__png, ptr %21, i32 0, i32 0
  %23 = load ptr, ptr %22, align 8, !tbaa !36
  %24 = getelementptr inbounds nuw %struct.stbi__context, ptr %23, i32 0, i32 0
  %25 = load i32, ptr %24, align 8, !tbaa !41
  %26 = load ptr, ptr %7, align 8, !tbaa !28
  store i32 %25, ptr %26, align 4, !tbaa !9
  br label %27

27:                                               ; preds = %20, %17
  %28 = load ptr, ptr %8, align 8, !tbaa !28
  %29 = icmp ne ptr %28, null
  br i1 %29, label %30, label %37

30:                                               ; preds = %27
  %31 = load ptr, ptr %6, align 8, !tbaa !3
  %32 = getelementptr inbounds nuw %struct.stbi__png, ptr %31, i32 0, i32 0
  %33 = load ptr, ptr %32, align 8, !tbaa !36
  %34 = getelementptr inbounds nuw %struct.stbi__context, ptr %33, i32 0, i32 1
  %35 = load i32, ptr %34, align 4, !tbaa !40
  %36 = load ptr, ptr %8, align 8, !tbaa !28
  store i32 %35, ptr %36, align 4, !tbaa !9
  br label %37

37:                                               ; preds = %30, %27
  %38 = load ptr, ptr %9, align 8, !tbaa !28
  %39 = icmp ne ptr %38, null
  br i1 %39, label %40, label %47

40:                                               ; preds = %37
  %41 = load ptr, ptr %6, align 8, !tbaa !3
  %42 = getelementptr inbounds nuw %struct.stbi__png, ptr %41, i32 0, i32 0
  %43 = load ptr, ptr %42, align 8, !tbaa !36
  %44 = getelementptr inbounds nuw %struct.stbi__context, ptr %43, i32 0, i32 2
  %45 = load i32, ptr %44, align 8, !tbaa !50
  %46 = load ptr, ptr %9, align 8, !tbaa !28
  store i32 %45, ptr %46, align 4, !tbaa !9
  br label %47

47:                                               ; preds = %40, %37
  store i32 1, ptr %5, align 4
  br label %48

48:                                               ; preds = %47, %13
  %49 = load i32, ptr %5, align 4
  ret i32 %49
}

; Function Attrs: nounwind uwtable
define i32 @stbi__png_info(ptr noundef %0, ptr noundef %1, ptr noundef %2, ptr noundef %3) #0 {
  %5 = alloca ptr, align 8
  %6 = alloca ptr, align 8
  %7 = alloca ptr, align 8
  %8 = alloca ptr, align 8
  %9 = alloca %struct.stbi__png, align 8
  store ptr %0, ptr %5, align 8, !tbaa !3
  store ptr %1, ptr %6, align 8, !tbaa !28
  store ptr %2, ptr %7, align 8, !tbaa !28
  store ptr %3, ptr %8, align 8, !tbaa !28
  call void @llvm.lifetime.start.p0(i64 40, ptr %9) #13
  %10 = load ptr, ptr %5, align 8, !tbaa !3
  %11 = getelementptr inbounds nuw %struct.stbi__png, ptr %9, i32 0, i32 0
  store ptr %10, ptr %11, align 8, !tbaa !36
  %12 = load ptr, ptr %6, align 8, !tbaa !28
  %13 = load ptr, ptr %7, align 8, !tbaa !28
  %14 = load ptr, ptr %8, align 8, !tbaa !28
  %15 = call i32 @stbi__png_info_raw(ptr noundef %9, ptr noundef %12, ptr noundef %13, ptr noundef %14)
  call void @llvm.lifetime.end.p0(i64 40, ptr %9) #13
  ret i32 %15
}