; Function Attrs: nounwind uwtable
define range(i32 0, 2) i32 @stbi__png_info(ptr noundef %0, ptr noundef writeonly captures(address_is_null) %1, ptr noundef writeonly captures(address_is_null) %2, ptr noundef writeonly captures(address_is_null) %3) local_unnamed_addr #2 {
  %5 = alloca %struct.stbi__png, align 8
  call void @llvm.lifetime.start.p0(i64 40, ptr nonnull %5) #37
  store ptr %0, ptr %5, align 8, !tbaa !30
  %6 = call i32 @stbi__parse_png_file(ptr noundef nonnull %5, i32 noundef 2, i32 noundef 0)
  %.not.i = icmp eq i32 %6, 0
  br i1 %.not.i, label %7, label %15

7:                                                ; preds = %4
  %8 = load ptr, ptr %5, align 8, !tbaa !30
  %9 = getelementptr inbounds nuw i8, ptr %8, i64 208
  %10 = load ptr, ptr %9, align 8, !tbaa !13
  %11 = getelementptr inbounds nuw i8, ptr %8, i64 192
  store ptr %10, ptr %11, align 8, !tbaa !14
  %12 = getelementptr inbounds nuw i8, ptr %8, i64 216
  %13 = load ptr, ptr %12, align 8, !tbaa !15
  %14 = getelementptr inbounds nuw i8, ptr %8, i64 200
  store ptr %13, ptr %14, align 8, !tbaa !16
  br label %stbi__png_info_raw.exit

15:                                               ; preds = %4
  %.not14.i = icmp eq ptr %1, null
  br i1 %.not14.i, label %19, label %16

16:                                               ; preds = %15
  %17 = load ptr, ptr %5, align 8, !tbaa !30
  %18 = load i32, ptr %17, align 8, !tbaa !41
  store i32 %18, ptr %1, align 4, !tbaa !23
  br label %19

19:                                               ; preds = %16, %15
  %.not15.i = icmp eq ptr %2, null
  br i1 %.not15.i, label %24, label %20

20:                                               ; preds = %19
  %21 = load ptr, ptr %5, align 8, !tbaa !30
  %22 = getelementptr inbounds nuw i8, ptr %21, i64 4
  %23 = load i32, ptr %22, align 4, !tbaa !40
  store i32 %23, ptr %2, align 4, !tbaa !23
  br label %24

24:                                               ; preds = %20, %19
  %.not16.i = icmp eq ptr %3, null
  br i1 %.not16.i, label %stbi__png_info_raw.exit, label %25

25:                                               ; preds = %24
  %26 = load ptr, ptr %5, align 8, !tbaa !30
  %27 = getelementptr inbounds nuw i8, ptr %26, i64 8
  %28 = load i32, ptr %27, align 8, !tbaa !50
  store i32 %28, ptr %3, align 4, !tbaa !23
  br label %stbi__png_info_raw.exit

stbi__png_info_raw.exit:                          ; preds = %7, %24, %25
  %.0.i = phi i32 [ 0, %7 ], [ 1, %25 ], [ 1, %24 ]
  call void @llvm.lifetime.end.p0(i64 40, ptr nonnull %5) #37
  ret i32 %.0.i
}